target datalayout = "e-m:e-p270:32:32-p271:32:32-p272:64:64-i64:64-i128:128-f80:128-n8:16:32:64-S128"
target triple = "x86_64-pc-linux-gnu"

; Function Attrs: nounwind uwtable
define dso_local void @bitmapClearBit(ptr noundef %0, i32 noundef %1) #0 {
  %3 = alloca ptr, align 8
  %4 = alloca i32, align 4
  %5 = alloca i64, align 8
  %6 = alloca i32, align 4
  store ptr %0, ptr %3, align 8, !tbaa !52
  store i32 %1, ptr %4, align 4, !tbaa !46
  call void @llvm.lifetime.start.p0(i64 8, ptr %5) #16
  %7 = load i32, ptr %4, align 4, !tbaa !46
  %8 = sdiv i32 %7, 8
  %9 = sext i32 %8 to i64
  store i64 %9, ptr %5, align 8, !tbaa !65
  call void @llvm.lifetime.start.p0(i64 4, ptr %6) #16
  %10 = load i32, ptr %4, align 4, !tbaa !46
  %11 = and i32 %10, 7
  store i32 %11, ptr %6, align 4, !tbaa !46
  %12 = load i32, ptr %6, align 4, !tbaa !46
  %13 = shl i32 1, %12
  %14 = xor i32 %13, -1
  %15 = load ptr, ptr %3, align 8, !tbaa !52
  %16 = load i64, ptr %5, align 8, !tbaa !65
  %17 = getelementptr inbounds i8, ptr %15, i64 %16
  %18 = load i8, ptr %17, align 1, !tbaa !54
  %19 = zext i8 %18 to i32
  %20 = and i32 %19, %14
  %21 = trunc i32 %20 to i8
  store i8 %21, ptr %17, align 1, !tbaa !54
  call void @llvm.lifetime.end.p0(i64 4, ptr %6) #16
  call void @llvm.lifetime.end.p0(i64 8, ptr %5) #16
  ret void
}