; Function Attrs: mustprogress nofree norecurse nosync nounwind willreturn memory(argmem: readwrite) uwtable
define dso_local void @bitmapClearBit(ptr noundef captures(none) %0, i32 noundef %1) local_unnamed_addr #27 {
  %3 = sdiv i32 %1, 8
  %4 = sext i32 %3 to i64
  %5 = and i32 %1, 7
  %6 = shl nuw nsw i32 1, %5
  %7 = getelementptr inbounds i8, ptr %0, i64 %4
  %8 = load i8, ptr %7, align 1, !tbaa !50
  %9 = trunc nuw i32 %6 to i8
  %10 = xor i8 %9, -1
  %11 = and i8 %8, %10
  store i8 %11, ptr %7, align 1, !tbaa !50
  ret void
}